target datalayout = "e-m:e-p270:32:32-p271:32:32-p272:64:64-i64:64-i128:128-f80:128-n8:16:32:64-S128"
target triple = "x86_64-pc-linux-gnu"

%struct.b2DynamicTree = type { ptr, i32, i32, i32, i32, i32, ptr, ptr, ptr, ptr, i32 }

; Function Attrs: nounwind uwtable
define i32 @b2DynamicTree_GetByteCount(ptr noundef %0) #0 {
  %2 = alloca ptr, align 8
  %3 = alloca i64, align 8
  store ptr %0, ptr %2, align 8, !tbaa !27
  call void @llvm.lifetime.start.p0(i64 8, ptr %3) #9
  %4 = load ptr, ptr %2, align 8, !tbaa !27
  %5 = getelementptr inbounds nuw %struct.b2DynamicTree, ptr %4, i32 0, i32 3
  %6 = load i32, ptr %5, align 8, !tbaa !13
  %7 = sext i32 %6 to i64
  %8 = mul i64 40, %7
  %9 = add i64 72, %8
  %10 = load ptr, ptr %2, align 8, !tbaa !27
  %11 = getelementptr inbounds nuw %struct.b2DynamicTree, ptr %10, i32 0, i32 10
  %12 = load i32, ptr %11, align 8, !tbaa !26
  %13 = sext i32 %12 to i64
  %14 = mul i64 %13, 32
  %15 = add i64 %9, %14
  store i64 %15, ptr %3, align 8, !tbaa !29
  %16 = load i64, ptr %3, align 8, !tbaa !29
  %17 = trunc i64 %16 to i32
  call void @llvm.lifetime.end.p0(i64 8, ptr %3) #9
  ret i32 %17
}