; Function Attrs: mustprogress nofree norecurse nosync nounwind willreturn memory(argmem: read) uwtable
define i32 @b2DynamicTree_GetByteCount(ptr noundef readonly captures(none) %0) local_unnamed_addr #7 {
  %2 = getelementptr inbounds nuw i8, ptr %0, i64 16
  %3 = load i32, ptr %2, align 8, !tbaa !13
  %4 = mul i32 %3, 40
  %5 = add i32 %4, 72
  %6 = getelementptr inbounds nuw i8, ptr %0, i64 64
  %7 = load i32, ptr %6, align 8, !tbaa !22
  %8 = shl i32 %7, 5
  %9 = add i32 %5, %8
  ret i32 %9
}